target datalayout = "e-m:e-p270:32:32-p271:32:32-p272:64:64-i64:64-i128:128-f80:128-n8:16:32:64-S128"
target triple = "x86_64-pc-linux-gnu"

%"class.llvm::Register" = type { i32 }
%"class.llvm::MachineInstr" = type <{ %"class.llvm::ilist_node_with_parent", ptr, ptr, ptr, [3 x i8], %"class.llvm::ArrayRecycler<llvm::MachineOperand>::Capacity", i32, %"class.llvm::PointerSumType", %"class.llvm::DebugLoc", i32, i16, [2 x i8] }>
%"class.llvm::ilist_node_with_parent" = type { %"class.llvm::ilist_node" }
%"class.llvm::ilist_node" = type { %"class.llvm::ilist_node_impl.148" }
%"class.llvm::ilist_node_impl.148" = type { %"class.llvm::ilist_node_base.149" }
%"class.llvm::ilist_node_base.149" = type { %"class.llvm::ilist_detail::node_base_prevnext.150" }
%"class.llvm::ilist_detail::node_base_prevnext.150" = type { %"class.llvm::PointerIntPair", ptr }
%"class.llvm::PointerIntPair" = type { %"struct.llvm::detail::PunnedPointer" }
%"struct.llvm::detail::PunnedPointer" = type { [8 x i8] }
%"class.llvm::ArrayRecycler<llvm::MachineOperand>::Capacity" = type { i8 }
%"class.llvm::PointerSumType" = type { %"union.llvm::PointerSumType<llvm::MachineInstr::ExtraInfoInlineKinds, llvm::PointerSumTypeMember<0, llvm::MachineMemOperand *>, llvm::PointerSumTypeMember<1, llvm::MCSymbol *>, llvm::PointerSumTypeMember<2, llvm::MCSymbol *>, llvm::PointerSumTypeMember<3, llvm::MachineInstr::ExtraInfo *>>::StorageT" }
%"union.llvm::PointerSumType<llvm::MachineInstr::ExtraInfoInlineKinds, llvm::PointerSumTypeMember<0, llvm::MachineMemOperand *>, llvm::PointerSumTypeMember<1, llvm::MCSymbol *>, llvm::PointerSumTypeMember<2, llvm::MCSymbol *>, llvm::PointerSumTypeMember<3, llvm::MachineInstr::ExtraInfo *>>::StorageT" = type { i64 }
%"class.llvm::DebugLoc" = type { %"class.llvm::TypedTrackingMDRef" }
%"class.llvm::TypedTrackingMDRef" = type { %"class.llvm::TrackingMDRef" }
%"class.llvm::TrackingMDRef" = type { ptr }

; Function Attrs: mustprogress nounwind uwtable
define linkonce_odr hidden noundef zeroext i1 @_ZNK4llvm8RegistereqERKS0_(ptr noundef nonnull align 4 dereferenceable(4) %0, ptr noundef nonnull align 4 dereferenceable(4) %1) #0 comdat align 2 {
  %3 = alloca ptr, align 8
  %4 = alloca ptr, align 8
  store ptr %0, ptr %3, align 8
  store ptr %1, ptr %4, align 8
  %5 = load ptr, ptr %3, align 8
  %6 = getelementptr inbounds nuw %"class.llvm::Register", ptr %5, i32 0, i32 0
  %7 = load i32, ptr %6, align 4
  %8 = load ptr, ptr %4, align 8
  %9 = getelementptr inbounds nuw %"class.llvm::Register", ptr %8, i32 0, i32 0
  %10 = load i32, ptr %9, align 4
  %11 = icmp eq i32 %7, %10
  ret i1 %11
}

; Function Attrs: mustprogress nounwind uwtable
define linkonce_odr hidden void @_ZN4llvm8RegisterC2Ej(ptr noundef nonnull align 4 dereferenceable(4) %0, i32 noundef %1) unnamed_addr #0 comdat align 2 {
  %3 = alloca ptr, align 8
  %4 = alloca i32, align 4
  store ptr %0, ptr %3, align 8
  store i32 %1, ptr %4, align 4
  %5 = load ptr, ptr %3, align 8
  %6 = getelementptr inbounds nuw %"class.llvm::Register", ptr %5, i32 0, i32 0
  %7 = load i32, ptr %4, align 4
  store i32 %7, ptr %6, align 4
  ret void
}

; Function Attrs: mustprogress nounwind uwtable
define linkonce_odr hidden noundef i32 @_ZNK4llvm12MachineInstr9getOpcodeEv(ptr noundef nonnull align 8 dereferenceable(70) %0) #0 comdat align 2 {
  %2 = alloca ptr, align 8
  store ptr %0, ptr %2, align 8
  %3 = load ptr, ptr %2, align 8
  %4 = getelementptr inbounds nuw %"class.llvm::MachineInstr", ptr %3, i32 0, i32 10
  %5 = load i16, ptr %4, align 4
  %6 = zext i16 %5 to i32
  ret i32 %6
}

; Function Attrs: mustprogress nounwind uwtable
define dso_local noundef zeroext i1 @_ZNK4llvm12X86InstrInfo20isRedundantFlagInstrERKNS_12MachineInstrENS_8RegisterES4_llS3_PbPl(ptr noundef nonnull align 8 dereferenceable(416) %0, ptr noundef nonnull align 8 dereferenceable(70) %1, i32 %2, i32 %3, i64 noundef %4, i64 noundef %5, ptr noundef nonnull align 8 dereferenceable(70) %6, ptr noundef %7, ptr noundef %8) #0 align 2 {
  %10 = alloca i1, align 1
  %11 = alloca %"class.llvm::Register", align 4
  %12 = alloca %"class.llvm::Register", align 4
  %13 = alloca ptr, align 8
  %14 = alloca ptr, align 8
  %15 = alloca i64, align 8
  %16 = alloca i64, align 8
  %17 = alloca ptr, align 8
  %18 = alloca ptr, align 8
  %19 = alloca ptr, align 8
  %20 = alloca %"class.llvm::Register", align 4
  %21 = alloca %"class.llvm::Register", align 4
  %22 = alloca i64, align 8
  %23 = alloca i64, align 8
  %24 = alloca %"class.llvm::Register", align 4
  %25 = alloca %"class.llvm::Register", align 4
  %26 = alloca i64, align 8
  %27 = alloca i64, align 8
  %28 = getelementptr inbounds nuw %"class.llvm::Register", ptr %11, i32 0, i32 0
  store i32 %2, ptr %28, align 4
  %29 = getelementptr inbounds nuw %"class.llvm::Register", ptr %12, i32 0, i32 0
  store i32 %3, ptr %29, align 4
  store ptr %0, ptr %13, align 8
  store ptr %1, ptr %14, align 8
  store i64 %4, ptr %15, align 8
  store i64 %5, ptr %16, align 8
  store ptr %6, ptr %17, align 8
  store ptr %7, ptr %18, align 8
  store ptr %8, ptr %19, align 8
  %30 = load ptr, ptr %13, align 8
  %31 = load ptr, ptr %17, align 8
  %32 = call noundef i32 @_ZNK4llvm12MachineInstr9getOpcodeEv(ptr noundef nonnull align 8 dereferenceable(70) %31)
  switch i32 %32, label %96 [
    i32 1280, label %33
    i32 1271, label %33
    i32 1262, label %33
    i32 1289, label %33
    i32 4744, label %33
    i32 4747, label %33
    i32 4703, label %33
    i32 4706, label %33
    i32 4662, label %33
    i32 4665, label %33
    i32 4777, label %33
    i32 4780, label %33
    i32 1277, label %58
    i32 1268, label %58
    i32 1259, label %58
    i32 1286, label %58
    i32 4729, label %58
    i32 4731, label %58
    i32 4688, label %58
    i32 4695, label %58
    i32 4647, label %58
    i32 4654, label %58
    i32 4766, label %58
    i32 4769, label %58
    i32 4890, label %58
    i32 4885, label %58
    i32 4880, label %58
    i32 4895, label %58
  ]

33:                                               ; preds = %9, %9, %9, %9, %9, %9, %9, %9, %9, %9, %9, %9
  call void @_ZN4llvm8RegisterC2Ej(ptr noundef nonnull align 4 dereferenceable(4) %20, i32 noundef 0)
  call void @_ZN4llvm8RegisterC2Ej(ptr noundef nonnull align 4 dereferenceable(4) %21, i32 noundef 0)
  %34 = load ptr, ptr %17, align 8
  %35 = call noundef zeroext i1 @_ZNK4llvm12X86InstrInfo14analyzeCompareERKNS_12MachineInstrERNS_8RegisterES5_RlS6_(ptr noundef nonnull align 8 dereferenceable(416) %30, ptr noundef nonnull align 8 dereferenceable(70) %34, ptr noundef nonnull align 4 dereferenceable(4) %20, ptr noundef nonnull align 4 dereferenceable(4) %21, ptr noundef nonnull align 8 dereferenceable(8) %22, ptr noundef nonnull align 8 dereferenceable(8) %23)
  br i1 %35, label %36, label %44

36:                                               ; preds = %33
  %37 = load i64, ptr %22, align 8
  %38 = load i64, ptr %15, align 8
  %39 = icmp ne i64 %37, %38
  br i1 %39, label %44, label %40

40:                                               ; preds = %36
  %41 = load i64, ptr %23, align 8
  %42 = load i64, ptr %16, align 8
  %43 = icmp ne i64 %41, %42
  br i1 %43, label %44, label %45

44:                                               ; preds = %40, %36, %33
  store i1 false, ptr %10, align 1
  br label %97

45:                                               ; preds = %40
  %46 = call noundef zeroext i1 @_ZNK4llvm8RegistereqERKS0_(ptr noundef nonnull align 4 dereferenceable(4) %11, ptr noundef nonnull align 4 dereferenceable(4) %20)
  br i1 %46, label %47, label %51

47:                                               ; preds = %45
  %48 = call noundef zeroext i1 @_ZNK4llvm8RegistereqERKS0_(ptr noundef nonnull align 4 dereferenceable(4) %12, ptr noundef nonnull align 4 dereferenceable(4) %21)
  br i1 %48, label %49, label %51

49:                                               ; preds = %47
  %50 = load ptr, ptr %18, align 8
  store i8 0, ptr %50, align 1
  store i1 true, ptr %10, align 1
  br label %97

51:                                               ; preds = %47, %45
  %52 = call noundef zeroext i1 @_ZNK4llvm8RegistereqERKS0_(ptr noundef nonnull align 4 dereferenceable(4) %11, ptr noundef nonnull align 4 dereferenceable(4) %21)
  br i1 %52, label %53, label %57

53:                                               ; preds = %51
  %54 = call noundef zeroext i1 @_ZNK4llvm8RegistereqERKS0_(ptr noundef nonnull align 4 dereferenceable(4) %12, ptr noundef nonnull align 4 dereferenceable(4) %20)
  br i1 %54, label %55, label %57

55:                                               ; preds = %53
  %56 = load ptr, ptr %18, align 8
  store i8 1, ptr %56, align 1
  store i1 true, ptr %10, align 1
  br label %97

57:                                               ; preds = %53, %51
  store i1 false, ptr %10, align 1
  br label %97

58:                                               ; preds = %9, %9, %9, %9, %9, %9, %9, %9, %9, %9, %9, %9, %9, %9, %9, %9
  %59 = load i64, ptr %15, align 8
  %60 = icmp ne i64 %59, 0
  br i1 %60, label %61, label %92

61:                                               ; preds = %58
  call void @_ZN4llvm8RegisterC2Ej(ptr noundef nonnull align 4 dereferenceable(4) %24, i32 noundef 0)
  call void @_ZN4llvm8RegisterC2Ej(ptr noundef nonnull align 4 dereferenceable(4) %25, i32 noundef 0)
  %62 = load ptr, ptr %17, align 8
  %63 = call noundef zeroext i1 @_ZNK4llvm12X86InstrInfo14analyzeCompareERKNS_12MachineInstrERNS_8RegisterES5_RlS6_(ptr noundef nonnull align 8 dereferenceable(416) %30, ptr noundef nonnull align 8 dereferenceable(70) %62, ptr noundef nonnull align 4 dereferenceable(4) %24, ptr noundef nonnull align 4 dereferenceable(4) %25, ptr noundef nonnull align 8 dereferenceable(8) %26, ptr noundef nonnull align 8 dereferenceable(8) %27)
  br i1 %63, label %64, label %91

64:                                               ; preds = %61
  %65 = call noundef zeroext i1 @_ZNK4llvm8RegistereqERKS0_(ptr noundef nonnull align 4 dereferenceable(4) %11, ptr noundef nonnull align 4 dereferenceable(4) %24)
  br i1 %65, label %66, label %91

66:                                               ; preds = %64
  %67 = load i64, ptr %15, align 8
  %68 = load i64, ptr %26, align 8
  %69 = icmp eq i64 %67, %68
  br i1 %69, label %70, label %91

70:                                               ; preds = %66
  %71 = load i64, ptr %27, align 8
  %72 = load i64, ptr %16, align 8
  %73 = icmp eq i64 %71, %72
  br i1 %73, label %74, label %76

74:                                               ; preds = %70
  %75 = load ptr, ptr %19, align 8
  store i64 0, ptr %75, align 8
  store i1 true, ptr %10, align 1
  br label %97

76:                                               ; preds = %70
  %77 = load i64, ptr %16, align 8
  %78 = load i64, ptr %27, align 8
  %79 = sub i64 %78, 1
  %80 = icmp eq i64 %77, %79
  br i1 %80, label %81, label %83

81:                                               ; preds = %76
  %82 = load ptr, ptr %19, align 8
  store i64 -1, ptr %82, align 8
  store i1 true, ptr %10, align 1
  br label %97

83:                                               ; preds = %76
  %84 = load i64, ptr %16, align 8
  %85 = load i64, ptr %27, align 8
  %86 = add i64 %85, 1
  %87 = icmp eq i64 %84, %86
  br i1 %87, label %88, label %90

88:                                               ; preds = %83
  %89 = load ptr, ptr %19, align 8
  store i64 1, ptr %89, align 8
  store i1 true, ptr %10, align 1
  br label %97

90:                                               ; preds = %83
  store i1 false, ptr %10, align 1
  br label %97

91:                                               ; preds = %66, %64, %61
  br label %92

92:                                               ; preds = %91, %58
  %93 = load ptr, ptr %14, align 8
  %94 = load ptr, ptr %17, align 8
  %95 = call noundef zeroext i1 @_ZNK4llvm12MachineInstr13isIdenticalToERKS0_NS0_11MICheckTypeE(ptr noundef nonnull align 8 dereferenceable(70) %93, ptr noundef nonnull align 8 dereferenceable(70) %94, i32 noundef 0)
  store i1 %95, ptr %10, align 1
  br label %97

96:                                               ; preds = %9
  store i1 false, ptr %10, align 1
  br label %97

97:                                               ; preds = %96, %92, %90, %88, %81, %74, %57, %55, %49, %44
  %98 = load i1, ptr %10, align 1
  ret i1 %98
}