; Function Attrs: mustprogress nounwind uwtable
define dso_local noundef zeroext i1 @_ZNK4llvm12X86InstrInfo20isRedundantFlagInstrERKNS_12MachineInstrENS_8RegisterES4_llS3_PbPl(ptr nonnull readnone align 8 captures(none) %0, ptr noundef nonnull align 8 dereferenceable(70) %1, i32 %2, i32 %3, i64 noundef %4, i64 noundef %5, ptr noundef nonnull align 8 dereferenceable(70) %6, ptr noundef writeonly captures(none) %7, ptr noundef writeonly captures(none) %8) local_unnamed_addr #1 align 2 {
  %10 = alloca %"class.llvm::Register", align 4
  %11 = alloca %"class.llvm::Register", align 4
  %12 = alloca i64, align 8
  %13 = alloca i64, align 8
  %14 = alloca %"class.llvm::Register", align 4
  %15 = alloca %"class.llvm::Register", align 4
  %16 = alloca i64, align 8
  %17 = alloca i64, align 8
  %18 = getelementptr inbounds nuw i8, ptr %6, i64 68
  %19 = load i16, ptr %18, align 4
  switch i16 %19, label %56 [
    i16 1280, label %20
    i16 1271, label %20
    i16 1262, label %20
    i16 1289, label %20
    i16 4744, label %20
    i16 4747, label %20
    i16 4703, label %20
    i16 4706, label %20
    i16 4662, label %20
    i16 4665, label %20
    i16 4777, label %20
    i16 4780, label %20
    i16 1277, label %34
    i16 1268, label %34
    i16 1259, label %34
    i16 1286, label %34
    i16 4729, label %34
    i16 4731, label %34
    i16 4688, label %34
    i16 4695, label %34
    i16 4647, label %34
    i16 4654, label %34
    i16 4766, label %34
    i16 4769, label %34
    i16 4890, label %34
    i16 4885, label %34
    i16 4880, label %34
    i16 4895, label %34
  ]

20:                                               ; preds = %9, %9, %9, %9, %9, %9, %9, %9, %9, %9, %9, %9
  store i32 0, ptr %10, align 4
  store i32 0, ptr %11, align 4
  %21 = call noundef zeroext i1 @_ZNK4llvm12X86InstrInfo14analyzeCompareERKNS_12MachineInstrERNS_8RegisterES5_RlS6_(ptr nonnull align 8 poison, ptr noundef nonnull align 8 dereferenceable(70) %6, ptr noundef nonnull align 4 dereferenceable(4) %10, ptr noundef nonnull align 4 dereferenceable(4) %11, ptr noundef nonnull align 8 dereferenceable(8) %12, ptr noundef nonnull align 8 dereferenceable(8) %13)
  %22 = load i64, ptr %12, align 8
  %.not21 = icmp eq i64 %22, %4
  %or.cond = select i1 %21, i1 %.not21, i1 false
  %23 = load i64, ptr %13, align 8
  %.not22 = icmp eq i64 %23, %5
  %or.cond23 = select i1 %or.cond, i1 %.not22, i1 false
  br i1 %or.cond23, label %24, label %56

24:                                               ; preds = %20
  %25 = load i32, ptr %10, align 4
  %26 = icmp eq i32 %2, %25
  %27 = load i32, ptr %11, align 4
  %28 = icmp eq i32 %3, %27
  %or.cond31 = select i1 %26, i1 %28, i1 false
  br i1 %or.cond31, label %29, label %30

29:                                               ; preds = %24
  store i8 0, ptr %7, align 1
  br label %56

30:                                               ; preds = %24
  %31 = icmp eq i32 %2, %27
  %32 = icmp eq i32 %3, %25
  %or.cond32 = select i1 %31, i1 %32, i1 false
  br i1 %or.cond32, label %33, label %56

33:                                               ; preds = %30
  store i8 1, ptr %7, align 1
  br label %56

34:                                               ; preds = %9, %9, %9, %9, %9, %9, %9, %9, %9, %9, %9, %9, %9, %9, %9, %9
  %.not = icmp eq i64 %4, 0
  br i1 %.not, label %54, label %35

35:                                               ; preds = %34
  store i32 0, ptr %14, align 4
  %36 = call noundef zeroext i1 @_ZNK4llvm12X86InstrInfo14analyzeCompareERKNS_12MachineInstrERNS_8RegisterES5_RlS6_(ptr nonnull align 8 poison, ptr noundef nonnull align 8 dereferenceable(70) %6, ptr noundef nonnull align 4 dereferenceable(4) %14, ptr noundef nonnull align 4 dereferenceable(4) %15, ptr noundef nonnull align 8 dereferenceable(8) %16, ptr noundef nonnull align 8 dereferenceable(8) %17)
  br i1 %36, label %37, label %54

37:                                               ; preds = %35
  %38 = load i32, ptr %14, align 4
  %39 = icmp eq i32 %2, %38
  %40 = load i64, ptr %16, align 8
  %41 = icmp eq i64 %4, %40
  %or.cond25 = select i1 %39, i1 %41, i1 false
  br i1 %or.cond25, label %42, label %54

42:                                               ; preds = %37
  %43 = load i64, ptr %17, align 8
  %44 = icmp eq i64 %43, %5
  br i1 %44, label %45, label %46

45:                                               ; preds = %42
  store i64 0, ptr %8, align 8
  br label %56

46:                                               ; preds = %42
  %47 = add i64 %43, -1
  %48 = icmp eq i64 %5, %47
  br i1 %48, label %49, label %50

49:                                               ; preds = %46
  store i64 -1, ptr %8, align 8
  br label %56

50:                                               ; preds = %46
  %51 = add i64 %43, 1
  %52 = icmp eq i64 %5, %51
  br i1 %52, label %53, label %56

53:                                               ; preds = %50
  store i64 1, ptr %8, align 8
  br label %56

54:                                               ; preds = %35, %37, %34
  %55 = tail call noundef zeroext i1 @_ZNK4llvm12MachineInstr13isIdenticalToERKS0_NS0_11MICheckTypeE(ptr noundef nonnull align 8 dereferenceable(70) %1, ptr noundef nonnull align 8 dereferenceable(70) %6, i32 noundef 0) #29
  br label %56

56:                                               ; preds = %9, %50, %30, %20, %54, %53, %49, %45, %33, %29
  %.0 = phi i1 [ true, %45 ], [ true, %49 ], [ true, %53 ], [ %55, %54 ], [ true, %29 ], [ true, %33 ], [ false, %20 ], [ false, %30 ], [ false, %50 ], [ false, %9 ]
  ret i1 %.0
}